target datalayout = "e-m:e-p270:32:32-p271:32:32-p272:64:64-i64:64-i128:128-f80:128-n8:16:32:64-S128"
target triple = "x86_64-pc-linux-gnu"

%struct.Fraig_ManStruct_t_ = type { ptr, ptr, ptr, ptr, ptr, ptr, ptr, ptr, ptr, i32, i32, i32, i32, i32, i32, i32, i32, i32, i32, i32, i32, i64, i32, i32, i32, i32, i32, ptr, ptr, ptr, ptr, ptr, i32, ptr, ptr, ptr, ptr, ptr, ptr, i32, ptr, ptr, ptr, ptr, i32, i32, i32, i32, i32, i32, i32, i32, i32, i32, i32, i32, i32, i32, i32, i32, i32, i32, i32, i64, i64, i64, i64, i64, i64, i64, i64, i64, i64, i64, i64 }
%struct.Fraig_NodeVecStruct_t_ = type { i32, i32, ptr }
%struct.Fraig_NodeStruct_t_ = type { i32, i32, i32, i32, i32, i32, i32, ptr, ptr, ptr, ptr, ptr, ptr, ptr, ptr, i32, i32, ptr, ptr, ptr, ptr, ptr, ptr, ptr }

@.str.10 = private unnamed_addr constant [60 x i8] c"Maximum level: Original = %d. Reduced due to choices = %d.\0A\00", align 1
@.str.11 = private unnamed_addr constant [55 x i8] c"Choice stats:  Choice nodes = %d. Total choices = %d.\0A\00", align 1

; Function Attrs: nounwind uwtable
define void @Fraig_MappingSetChoiceLevels(ptr noundef %0, i32 noundef %1) #0 {
  %3 = alloca ptr, align 8
  %4 = alloca i32, align 4
  %5 = alloca i32, align 4
  store ptr %0, ptr %3, align 8
  store i32 %1, ptr %4, align 4
  %6 = load ptr, ptr %3, align 8
  %7 = getelementptr inbounds %struct.Fraig_ManStruct_t_, ptr %6, i32 0, i32 22
  %8 = load i32, ptr %7, align 8
  %9 = add nsw i32 %8, 1
  store i32 %9, ptr %7, align 8
  store i32 0, ptr %5, align 4
  br label %10

10:                                               ; preds = %34, %2
  %11 = load i32, ptr %5, align 4
  %12 = load ptr, ptr %3, align 8
  %13 = getelementptr inbounds %struct.Fraig_ManStruct_t_, ptr %12, i32 0, i32 2
  %14 = load ptr, ptr %13, align 8
  %15 = getelementptr inbounds %struct.Fraig_NodeVecStruct_t_, ptr %14, i32 0, i32 1
  %16 = load i32, ptr %15, align 4
  %17 = icmp slt i32 %11, %16
  br i1 %17, label %18, label %37

18:                                               ; preds = %10
  %19 = load ptr, ptr %3, align 8
  %20 = load ptr, ptr %3, align 8
  %21 = getelementptr inbounds %struct.Fraig_ManStruct_t_, ptr %20, i32 0, i32 2
  %22 = load ptr, ptr %21, align 8
  %23 = getelementptr inbounds %struct.Fraig_NodeVecStruct_t_, ptr %22, i32 0, i32 2
  %24 = load ptr, ptr %23, align 8
  %25 = load i32, ptr %5, align 4
  %26 = sext i32 %25 to i64
  %27 = getelementptr inbounds ptr, ptr %24, i64 %26
  %28 = load ptr, ptr %27, align 8
  %29 = ptrtoint ptr %28 to i64
  %30 = and i64 %29, -2
  %31 = inttoptr i64 %30 to ptr
  %32 = load i32, ptr %4, align 4
  %33 = call i32 @Fraig_MappingUpdateLevel_rec(ptr noundef %19, ptr noundef %31, i32 noundef %32)
  br label %34

34:                                               ; preds = %18
  %35 = load i32, ptr %5, align 4
  %36 = add nsw i32 %35, 1
  store i32 %36, ptr %5, align 4
  br label %10, !llvm.loop !16

37:                                               ; preds = %10
  ret void
}

; Function Attrs: nounwind uwtable
define i32 @Fraig_GetMaxLevel(ptr noundef %0) #0 {
  %2 = alloca ptr, align 8
  %3 = alloca i32, align 4
  %4 = alloca i32, align 4
  store ptr %0, ptr %2, align 8
  store i32 0, ptr %3, align 4
  store i32 0, ptr %4, align 4
  br label %5

5:                                                ; preds = %49, %1
  %6 = load i32, ptr %4, align 4
  %7 = load ptr, ptr %2, align 8
  %8 = getelementptr inbounds %struct.Fraig_ManStruct_t_, ptr %7, i32 0, i32 2
  %9 = load ptr, ptr %8, align 8
  %10 = getelementptr inbounds %struct.Fraig_NodeVecStruct_t_, ptr %9, i32 0, i32 1
  %11 = load i32, ptr %10, align 4
  %12 = icmp slt i32 %6, %11
  br i1 %12, label %13, label %52

13:                                               ; preds = %5
  %14 = load i32, ptr %3, align 4
  %15 = load ptr, ptr %2, align 8
  %16 = getelementptr inbounds %struct.Fraig_ManStruct_t_, ptr %15, i32 0, i32 2
  %17 = load ptr, ptr %16, align 8
  %18 = getelementptr inbounds %struct.Fraig_NodeVecStruct_t_, ptr %17, i32 0, i32 2
  %19 = load ptr, ptr %18, align 8
  %20 = load i32, ptr %4, align 4
  %21 = sext i32 %20 to i64
  %22 = getelementptr inbounds ptr, ptr %19, i64 %21
  %23 = load ptr, ptr %22, align 8
  %24 = ptrtoint ptr %23 to i64
  %25 = and i64 %24, -2
  %26 = inttoptr i64 %25 to ptr
  %27 = getelementptr inbounds %struct.Fraig_NodeStruct_t_, ptr %26, i32 0, i32 2
  %28 = load i32, ptr %27, align 8
  %29 = icmp sgt i32 %14, %28
  br i1 %29, label %30, label %32

30:                                               ; preds = %13
  %31 = load i32, ptr %3, align 4
  br label %47

32:                                               ; preds = %13
  %33 = load ptr, ptr %2, align 8
  %34 = getelementptr inbounds %struct.Fraig_ManStruct_t_, ptr %33, i32 0, i32 2
  %35 = load ptr, ptr %34, align 8
  %36 = getelementptr inbounds %struct.Fraig_NodeVecStruct_t_, ptr %35, i32 0, i32 2
  %37 = load ptr, ptr %36, align 8
  %38 = load i32, ptr %4, align 4
  %39 = sext i32 %38 to i64
  %40 = getelementptr inbounds ptr, ptr %37, i64 %39
  %41 = load ptr, ptr %40, align 8
  %42 = ptrtoint ptr %41 to i64
  %43 = and i64 %42, -2
  %44 = inttoptr i64 %43 to ptr
  %45 = getelementptr inbounds %struct.Fraig_NodeStruct_t_, ptr %44, i32 0, i32 2
  %46 = load i32, ptr %45, align 8
  br label %47

47:                                               ; preds = %32, %30
  %48 = phi i32 [ %31, %30 ], [ %46, %32 ]
  store i32 %48, ptr %3, align 4
  br label %49

49:                                               ; preds = %47
  %50 = load i32, ptr %4, align 4
  %51 = add nsw i32 %50, 1
  store i32 %51, ptr %4, align 4
  br label %5, !llvm.loop !14

52:                                               ; preds = %5
  %53 = load i32, ptr %3, align 4
  ret i32 %53
}

; Function Attrs: nounwind uwtable
define void @Fraig_ManReportChoices(ptr noundef %0) #0 {
  %2 = alloca ptr, align 8
  %3 = alloca ptr, align 8
  %4 = alloca ptr, align 8
  %5 = alloca i32, align 4
  %6 = alloca i32, align 4
  %7 = alloca i32, align 4
  %8 = alloca i32, align 4
  %9 = alloca i32, align 4
  store ptr %0, ptr %2, align 8
  %10 = load ptr, ptr %2, align 8
  %11 = call i32 @Fraig_GetMaxLevel(ptr noundef %10)
  store i32 %11, ptr %8, align 4
  %12 = load ptr, ptr %2, align 8
  call void @Fraig_MappingSetChoiceLevels(ptr noundef %12, i32 noundef 0)
  %13 = load ptr, ptr %2, align 8
  %14 = call i32 @Fraig_GetMaxLevel(ptr noundef %13)
  store i32 %14, ptr %9, align 4
  store i32 0, ptr %6, align 4
  store i32 0, ptr %5, align 4
  store i32 0, ptr %7, align 4
  br label %15

15:                                               ; preds = %58, %1
  %16 = load i32, ptr %7, align 4
  %17 = load ptr, ptr %2, align 8
  %18 = getelementptr inbounds %struct.Fraig_ManStruct_t_, ptr %17, i32 0, i32 1
  %19 = load ptr, ptr %18, align 8
  %20 = getelementptr inbounds %struct.Fraig_NodeVecStruct_t_, ptr %19, i32 0, i32 1
  %21 = load i32, ptr %20, align 4
  %22 = icmp slt i32 %16, %21
  br i1 %22, label %23, label %61

23:                                               ; preds = %15
  %24 = load ptr, ptr %2, align 8
  %25 = getelementptr inbounds %struct.Fraig_ManStruct_t_, ptr %24, i32 0, i32 1
  %26 = load ptr, ptr %25, align 8
  %27 = getelementptr inbounds %struct.Fraig_NodeVecStruct_t_, ptr %26, i32 0, i32 2
  %28 = load ptr, ptr %27, align 8
  %29 = load i32, ptr %7, align 4
  %30 = sext i32 %29 to i64
  %31 = getelementptr inbounds ptr, ptr %28, i64 %30
  %32 = load ptr, ptr %31, align 8
  store ptr %32, ptr %3, align 8
  %33 = load ptr, ptr %3, align 8
  %34 = getelementptr inbounds %struct.Fraig_NodeStruct_t_, ptr %33, i32 0, i32 14
  %35 = load ptr, ptr %34, align 8
  %36 = icmp eq ptr %35, null
  br i1 %36, label %37, label %57

37:                                               ; preds = %23
  %38 = load ptr, ptr %3, align 8
  %39 = getelementptr inbounds %struct.Fraig_NodeStruct_t_, ptr %38, i32 0, i32 13
  %40 = load ptr, ptr %39, align 8
  %41 = icmp ne ptr %40, null
  br i1 %41, label %42, label %57

42:                                               ; preds = %37
  %43 = load i32, ptr %5, align 4
  %44 = add nsw i32 %43, 1
  store i32 %44, ptr %5, align 4
  %45 = load ptr, ptr %3, align 8
  store ptr %45, ptr %4, align 8
  br label %46

46:                                               ; preds = %52, %42
  %47 = load ptr, ptr %4, align 8
  %48 = icmp ne ptr %47, null
  br i1 %48, label %49, label %56

49:                                               ; preds = %46
  %50 = load i32, ptr %6, align 4
  %51 = add nsw i32 %50, 1
  store i32 %51, ptr %6, align 4
  br label %52

52:                                               ; preds = %49
  %53 = load ptr, ptr %4, align 8
  %54 = getelementptr inbounds %struct.Fraig_NodeStruct_t_, ptr %53, i32 0, i32 13
  %55 = load ptr, ptr %54, align 8
  store ptr %55, ptr %4, align 8
  br label %46, !llvm.loop !17

56:                                               ; preds = %46
  br label %57

57:                                               ; preds = %56, %37, %23
  br label %58

58:                                               ; preds = %57
  %59 = load i32, ptr %7, align 4
  %60 = add nsw i32 %59, 1
  store i32 %60, ptr %7, align 4
  br label %15, !llvm.loop !18

61:                                               ; preds = %15
  %62 = load i32, ptr %8, align 4
  %63 = load i32, ptr %9, align 4
  %64 = call i32 (ptr, ...) @printf(ptr noundef @.str.10, i32 noundef %62, i32 noundef %63)
  %65 = load i32, ptr %5, align 4
  %66 = load i32, ptr %6, align 4
  %67 = call i32 (ptr, ...) @printf(ptr noundef @.str.11, i32 noundef %65, i32 noundef %66)
  ret void
}