; Function Attrs: nounwind uwtable
define void @Fraig_ManReportChoices(ptr noundef %0) local_unnamed_addr #0 {
  %2 = getelementptr inbounds nuw i8, ptr %0, i64 16
  %3 = load ptr, ptr %2, align 8
  %4 = getelementptr inbounds nuw i8, ptr %3, i64 4
  %5 = load i32, ptr %4, align 4
  %6 = icmp sgt i32 %5, 0
  br i1 %6, label %.lr.ph.i, label %Fraig_GetMaxLevel.exit

.lr.ph.i:                                         ; preds = %1
  %7 = getelementptr inbounds nuw i8, ptr %3, i64 8
  %8 = load ptr, ptr %7, align 8
  %wide.trip.count.i = zext nneg i32 %5 to i64
  br label %9

9:                                                ; preds = %9, %.lr.ph.i
  %indvars.iv.i = phi i64 [ 0, %.lr.ph.i ], [ %indvars.iv.next.i, %9 ]
  %.0911.i = phi i32 [ 0, %.lr.ph.i ], [ %.09..i, %9 ]
  %10 = getelementptr inbounds nuw ptr, ptr %8, i64 %indvars.iv.i
  %11 = load ptr, ptr %10, align 8
  %12 = ptrtoint ptr %11 to i64
  %13 = and i64 %12, -2
  %14 = inttoptr i64 %13 to ptr
  %15 = getelementptr inbounds nuw i8, ptr %14, i64 8
  %16 = load i32, ptr %15, align 8
  %.09..i = tail call i32 @llvm.smax.i32(i32 %.0911.i, i32 %16)
  %indvars.iv.next.i = add nuw nsw i64 %indvars.iv.i, 1
  %exitcond.not.i = icmp eq i64 %indvars.iv.next.i, %wide.trip.count.i
  br i1 %exitcond.not.i, label %Fraig_GetMaxLevel.exit, label %9, !llvm.loop !14

Fraig_GetMaxLevel.exit:                           ; preds = %9, %1
  %.09.lcssa.i = phi i32 [ 0, %1 ], [ %.09..i, %9 ]
  %17 = getelementptr inbounds nuw i8, ptr %0, i64 128
  %18 = load i32, ptr %17, align 8
  %19 = add nsw i32 %18, 1
  store i32 %19, ptr %17, align 8
  %20 = load i32, ptr %4, align 4
  %21 = icmp sgt i32 %20, 0
  br i1 %21, label %.lr.ph.i23, label %Fraig_GetMaxLevel.exit34

.lr.ph.i23:                                       ; preds = %Fraig_GetMaxLevel.exit, %.lr.ph.i23
  %indvars.iv.i24 = phi i64 [ %indvars.iv.next.i25, %.lr.ph.i23 ], [ 0, %Fraig_GetMaxLevel.exit ]
  %22 = phi ptr [ %31, %.lr.ph.i23 ], [ %3, %Fraig_GetMaxLevel.exit ]
  %23 = getelementptr inbounds nuw i8, ptr %22, i64 8
  %24 = load ptr, ptr %23, align 8
  %25 = getelementptr inbounds nuw ptr, ptr %24, i64 %indvars.iv.i24
  %26 = load ptr, ptr %25, align 8
  %27 = ptrtoint ptr %26 to i64
  %28 = and i64 %27, -2
  %29 = inttoptr i64 %28 to ptr
  %30 = tail call i32 @Fraig_MappingUpdateLevel_rec(ptr noundef nonnull %0, ptr noundef %29, i32 noundef 0)
  %indvars.iv.next.i25 = add nuw nsw i64 %indvars.iv.i24, 1
  %31 = load ptr, ptr %2, align 8
  %32 = getelementptr inbounds nuw i8, ptr %31, i64 4
  %33 = load i32, ptr %32, align 4
  %34 = sext i32 %33 to i64
  %35 = icmp slt i64 %indvars.iv.next.i25, %34
  br i1 %35, label %.lr.ph.i23, label %Fraig_MappingSetChoiceLevels.exit, !llvm.loop !16

Fraig_MappingSetChoiceLevels.exit:                ; preds = %.lr.ph.i23
  %36 = icmp sgt i32 %33, 0
  br i1 %36, label %.lr.ph.i27, label %Fraig_GetMaxLevel.exit34

.lr.ph.i27:                                       ; preds = %Fraig_MappingSetChoiceLevels.exit
  %37 = getelementptr inbounds nuw i8, ptr %31, i64 8
  %38 = load ptr, ptr %37, align 8
  %wide.trip.count.i28 = zext nneg i32 %33 to i64
  br label %39

39:                                               ; preds = %39, %.lr.ph.i27
  %indvars.iv.i29 = phi i64 [ 0, %.lr.ph.i27 ], [ %indvars.iv.next.i32, %39 ]
  %.0911.i30 = phi i32 [ 0, %.lr.ph.i27 ], [ %.09..i31, %39 ]
  %40 = getelementptr inbounds nuw ptr, ptr %38, i64 %indvars.iv.i29
  %41 = load ptr, ptr %40, align 8
  %42 = ptrtoint ptr %41 to i64
  %43 = and i64 %42, -2
  %44 = inttoptr i64 %43 to ptr
  %45 = getelementptr inbounds nuw i8, ptr %44, i64 8
  %46 = load i32, ptr %45, align 8
  %.09..i31 = tail call i32 @llvm.smax.i32(i32 %.0911.i30, i32 %46)
  %indvars.iv.next.i32 = add nuw nsw i64 %indvars.iv.i29, 1
  %exitcond.not.i33 = icmp eq i64 %indvars.iv.next.i32, %wide.trip.count.i28
  br i1 %exitcond.not.i33, label %Fraig_GetMaxLevel.exit34, label %39, !llvm.loop !14

Fraig_GetMaxLevel.exit34:                         ; preds = %39, %Fraig_GetMaxLevel.exit, %Fraig_MappingSetChoiceLevels.exit
  %.09.lcssa.i26 = phi i32 [ 0, %Fraig_MappingSetChoiceLevels.exit ], [ 0, %Fraig_GetMaxLevel.exit ], [ %.09..i31, %39 ]
  %47 = getelementptr inbounds nuw i8, ptr %0, i64 8
  %48 = load ptr, ptr %47, align 8
  %49 = getelementptr inbounds nuw i8, ptr %48, i64 4
  %50 = load i32, ptr %49, align 4
  %51 = icmp sgt i32 %50, 0
  br i1 %51, label %.lr.ph41, label %._crit_edge

.lr.ph41:                                         ; preds = %Fraig_GetMaxLevel.exit34
  %52 = getelementptr inbounds nuw i8, ptr %48, i64 8
  %53 = load ptr, ptr %52, align 8
  %wide.trip.count = zext nneg i32 %50 to i64
  br label %54

54:                                               ; preds = %.lr.ph41, %.loopexit
  %indvars.iv = phi i64 [ 0, %.lr.ph41 ], [ %indvars.iv.next, %.loopexit ]
  %.01840 = phi i32 [ 0, %.lr.ph41 ], [ %.1, %.loopexit ]
  %.02038 = phi i32 [ 0, %.lr.ph41 ], [ %.2, %.loopexit ]
  %55 = getelementptr inbounds nuw ptr, ptr %53, i64 %indvars.iv
  %56 = load ptr, ptr %55, align 8
  %57 = getelementptr inbounds nuw i8, ptr %56, i64 88
  %58 = load ptr, ptr %57, align 8
  %59 = icmp eq ptr %58, null
  br i1 %59, label %60, label %.loopexit

60:                                               ; preds = %54
  %61 = getelementptr inbounds nuw i8, ptr %56, i64 80
  %62 = load ptr, ptr %61, align 8
  %.not = icmp eq ptr %62, null
  br i1 %.not, label %.loopexit, label %.lr.ph.preheader

.lr.ph.preheader:                                 ; preds = %60
  %63 = add nsw i32 %.01840, 1
  br label %.lr.ph

.lr.ph:                                           ; preds = %.lr.ph.preheader, %.lr.ph
  %.037 = phi ptr [ %66, %.lr.ph ], [ %56, %.lr.ph.preheader ]
  %.12136 = phi i32 [ %64, %.lr.ph ], [ %.02038, %.lr.ph.preheader ]
  %64 = add nsw i32 %.12136, 1
  %65 = getelementptr inbounds nuw i8, ptr %.037, i64 80
  %66 = load ptr, ptr %65, align 8
  %.not22 = icmp eq ptr %66, null
  br i1 %.not22, label %.loopexit, label %.lr.ph, !llvm.loop !17

.loopexit:                                        ; preds = %.lr.ph, %54, %60
  %.2 = phi i32 [ %.02038, %60 ], [ %.02038, %54 ], [ %64, %.lr.ph ]
  %.1 = phi i32 [ %.01840, %60 ], [ %.01840, %54 ], [ %63, %.lr.ph ]
  %indvars.iv.next = add nuw nsw i64 %indvars.iv, 1
  %exitcond.not = icmp eq i64 %indvars.iv.next, %wide.trip.count
  br i1 %exitcond.not, label %._crit_edge, label %54, !llvm.loop !18

._crit_edge:                                      ; preds = %.loopexit, %Fraig_GetMaxLevel.exit34
  %.020.lcssa = phi i32 [ 0, %Fraig_GetMaxLevel.exit34 ], [ %.2, %.loopexit ]
  %.018.lcssa = phi i32 [ 0, %Fraig_GetMaxLevel.exit34 ], [ %.1, %.loopexit ]
  %67 = tail call i32 (ptr, ...) @printf(ptr noundef nonnull dereferenceable(1) @.str.10, i32 noundef %.09.lcssa.i, i32 noundef %.09.lcssa.i26)
  %68 = tail call i32 (ptr, ...) @printf(ptr noundef nonnull dereferenceable(1) @.str.11, i32 noundef %.018.lcssa, i32 noundef %.020.lcssa)
  ret void
}